; ModuleID = '15/637.c'
source_filename = "15/637.c"
target datalayout = "e-m:e-p270:32:32-p271:32:32-p272:64:64-i64:64-f80:128-n8:16:32:64-S128"
target triple = "x86_64-pc-linux-gnu"

@.str = private unnamed_addr constant [3 x i8] c"%d\00", align 1
@.str.1 = private unnamed_addr constant [4 x i8] c"%ld\00", align 1

; Function Attrs: noinline nounwind uwtable
define dso_local i32 @main() #0 {
  %1 = alloca i32, align 4
  %2 = alloca i64, align 8
  %3 = alloca i64, align 8
  %4 = alloca i64, align 8
  %5 = alloca i64, align 8
  %6 = alloca i64, align 8
  %7 = alloca i64, align 8
  %8 = alloca i64, align 8
  %9 = alloca i64, align 8
  %10 = alloca i32, align 4
  store i32 0, i32* %1, align 4
  %11 = call i32 (i8*, ...) @__isoc99_scanf(i8* getelementptr inbounds ([3 x i8], [3 x i8]* @.str, i64 0, i64 0), i64* %6)
  store i32 1, i32* %10, align 4
  store i64 0, i64* %2, align 8
  br label %12

12:                                               ; preds = %15, %0
  %13 = load i32, i32* %10, align 4
  %14 = icmp ne i32 %13, 0
  br i1 %14, label %15, label %19

15:                                               ; preds = %12
  %16 = load i64, i64* %2, align 8
  %17 = add nsw i64 %16, 1
  store i64 %17, i64* %2, align 8
  %18 = call i32 (i8*, ...) @__isoc99_scanf(i8* getelementptr inbounds ([3 x i8], [3 x i8]* @.str, i64 0, i64 0), i32* %10)
  br label %12

19:                                               ; preds = %12
  %20 = load i64, i64* %2, align 8
  store i64 %20, i64* %4, align 8
  %21 = load i64, i64* %6, align 8
  %22 = load i64, i64* %6, align 8
  %23 = mul nsw i64 %21, %22
  store i64 %23, i64* %8, align 8
  %24 = load i64, i64* %2, align 8
  store i64 %24, i64* %5, align 8
  store i64 0, i64* %7, align 8
  %25 = load i64, i64* %2, align 8
  store i64 %25, i64* %3, align 8
  br label %26

26:                                               ; preds = %47, %19
  %27 = load i64, i64* %3, align 8
  %28 = load i64, i64* %8, align 8
  %29 = icmp sle i64 %27, %28
  br i1 %29, label %30, label %50

30:                                               ; preds = %26
  %31 = call i32 (i8*, ...) @__isoc99_scanf(i8* getelementptr inbounds ([3 x i8], [3 x i8]* @.str, i64 0, i64 0), i32* %10)
  %32 = load i32, i32* %10, align 4
  %33 = icmp eq i32 %32, 255
  br i1 %33, label %34, label %37

34:                                               ; preds = %30
  %35 = load i64, i64* %7, align 8
  %36 = add nsw i64 %35, 1
  store i64 %36, i64* %7, align 8
  br label %37

37:                                               ; preds = %34, %30
  %38 = load i32, i32* %10, align 4
  %39 = icmp eq i32 %38, 0
  br i1 %39, label %40, label %46

40:                                               ; preds = %37
  %41 = load i64, i64* %5, align 8
  %42 = add nsw i64 %41, 1
  store i64 %42, i64* %5, align 8
  %43 = load i64, i64* %5, align 8
  %44 = load i64, i64* %7, align 8
  %45 = add nsw i64 %43, %44
  store i64 %45, i64* %5, align 8
  store i64 0, i64* %7, align 8
  br label %46

46:                                               ; preds = %40, %37
  br label %47

47:                                               ; preds = %46
  %48 = load i64, i64* %3, align 8
  %49 = add nsw i64 %48, 1
  store i64 %49, i64* %3, align 8
  br label %26

50:                                               ; preds = %26
  %51 = load i64, i64* %5, align 8
  %52 = load i64, i64* %5, align 8
  %53 = load i64, i64* %6, align 8
  %54 = srem i64 %52, %53
  %55 = sub nsw i64 %51, %54
  %56 = load i64, i64* %6, align 8
  %57 = sdiv i64 %55, %56
  %58 = load i64, i64* %4, align 8
  %59 = load i64, i64* %4, align 8
  %60 = load i64, i64* %6, align 8
  %61 = srem i64 %59, %60
  %62 = sub nsw i64 %58, %61
  %63 = load i64, i64* %6, align 8
  %64 = sdiv i64 %62, %63
  %65 = sub nsw i64 %57, %64
  %66 = sub nsw i64 %65, 1
  %67 = load i64, i64* %4, align 8
  %68 = load i64, i64* %6, align 8
  %69 = srem i64 %67, %68
  %70 = load i64, i64* %5, align 8
  %71 = load i64, i64* %6, align 8
  %72 = srem i64 %70, %71
  %73 = sub nsw i64 %69, %72
  %74 = trunc i64 %73 to i32
  %75 = call i32 @abs(i32 %74) #3
  %76 = sub nsw i32 %75, 1
  %77 = sext i32 %76 to i64
  %78 = mul nsw i64 %66, %77
  store i64 %78, i64* %9, align 8
  %79 = load i64, i64* %9, align 8
  %80 = call i32 (i8*, ...) @printf(i8* getelementptr inbounds ([4 x i8], [4 x i8]* @.str.1, i64 0, i64 0), i64 %79)
  %81 = load i32, i32* %1, align 4
  ret i32 %81
}

declare dso_local i32 @__isoc99_scanf(i8*, ...) #1

; Function Attrs: nounwind readnone
declare dso_local i32 @abs(i32) #2

declare dso_local i32 @printf(i8*, ...) #1


!llvm.module.flags = !{!0}
!llvm.ident = !{!1}

!0 = !{i32 1, !"wchar_size", i32 4}
!1 = !{!"clang version 10.0.0-4ubuntu1 "}
